; Function Attrs: mustprogress nofree norecurse nounwind willreturn memory(argmem: readwrite) uwtable
define noundef range(i32 -2147483648, 2147483647) i32 @_ZNK6icu_7712UnifiedCache13removeHardRefEPKNS_12SharedObjectE(ptr noundef nonnull align 8 captures(none) dereferenceable(56) %0, ptr noundef %1) local_unnamed_addr #11 align 2 {
  %.not = icmp eq ptr %1, null
  br i1 %.not, label %12, label %3

3:                                                ; preds = %2
  %4 = getelementptr inbounds nuw i8, ptr %1, i64 12
  %5 = atomicrmw sub ptr %4, i32 1 seq_cst, align 4
  %6 = add nsw i32 %5, -1
  %7 = icmp eq i32 %6, 0
  br i1 %7, label %8, label %12

8:                                                ; preds = %3
  %9 = getelementptr inbounds nuw i8, ptr %0, i64 24
  %10 = load i32, ptr %9, align 8, !tbaa !30
  %11 = add nsw i32 %10, -1
  store i32 %11, ptr %9, align 8, !tbaa !30
  br label %12

12:                                               ; preds = %3, %8, %2
  %.0 = phi i32 [ 0, %8 ], [ %6, %3 ], [ 0, %2 ]
  ret i32 %.0
}